Certificate:
    Data:
        Version: 3 (0x2)
        Serial Number:
            3f:d9:b2:f0:f4:91:ce:73:df:ca:d5:52:a7:5e:aa:84
        Signature Algorithm: sha256WithRSAEncryption
        Issuer: CN=Easy-RSA CA
        Validity
            Not Before: Feb 27 06:45:05 2026 GMT
            Not After : Feb  3 06:45:05 2126 GMT
        Subject: CN=ieee802-1x-srv.example.org
        Subject Public Key Info:
            Public Key Algorithm: rsaEncryption
                Public-Key: (2048 bit)
                Modulus:
                    00:cf:02:0f:4b:c5:f2:d4:de:f7:5d:5c:28:8a:7f:
                    5f:50:0f:30:e3:73:ba:b3:ef:86:e5:b9:b4:89:d1:
                    1a:ec:fc:e8:0d:3e:f2:81:12:ac:61:8f:25:4f:82:
                    85:f2:f3:1c:e5:ba:38:3d:1d:1a:bc:e7:01:00:39:
                    b6:74:4d:01:e5:3a:32:b9:22:d8:7b:52:f2:9c:5c:
                    ae:f4:54:04:d8:e7:ac:2c:61:3f:5d:92:0f:80:3f:
                    30:76:ab:93:9c:11:29:32:42:b8:93:ef:9d:24:3c:
                    06:2d:31:b5:33:75:c0:f3:b6:60:6b:3d:35:1a:33:
                    15:61:f6:2a:9d:a8:8c:9b:f2:3e:ae:8b:b4:6a:e5:
                    95:75:a1:60:cd:6f:a5:da:28:cc:fb:6a:cb:69:ea:
                    61:b3:87:29:e2:11:48:ee:70:f0:40:b5:79:fa:03:
                    d2:7f:ca:e7:b8:56:6b:fd:29:09:f1:06:1f:6d:b7:
                    e8:32:68:73:23:11:e6:63:e8:af:94:3e:3d:5b:70:
                    0b:64:e4:1c:65:f9:d0:be:a9:ca:34:90:cf:51:b7:
                    a0:d6:b6:15:de:03:01:ba:8a:52:91:cc:61:cb:a1:
                    a5:00:02:c1:9d:cd:5e:a1:70:f2:f0:ef:42:6b:76:
                    59:94:86:ec:4d:55:14:2d:79:4f:bb:f6:dc:d3:1c:
                    92:8d
                Exponent: 65537 (0x10001)
        X509v3 extensions:
            X509v3 Basic Constraints: 
                CA:FALSE
            X509v3 Subject Key Identifier: 
                5E:14:2B:0C:FB:32:D4:5F:91:98:DA:E8:8E:FD:48:B7:87:AE:8D:77
            X509v3 Authority Key Identifier: 
                keyid:16:F7:FC:E8:1D:A2:39:FB:4E:3A:04:BD:48:C5:68:B0:40:2A:C5:21
                DirName:/CN=Easy-RSA CA
                serial:7D:EE:CB:ED:05:91:26:72:2D:02:F7:51:BF:2B:B2:EB:21:A2:96:0C
            X509v3 Extended Key Usage: 
                TLS Web Server Authentication
            X509v3 Key Usage: 
                Digital Signature, Key Encipherment
            X509v3 Subject Alternative Name: 
                DNS:ieee802-1x-srv.example.org
    Signature Algorithm: sha256WithRSAEncryption
    Signature Value:
        6c:80:b5:0d:97:4d:f0:11:22:d0:2b:01:0c:fc:86:8f:f2:1a:
        50:66:e6:cc:96:e5:c8:45:23:56:00:ce:b3:3b:01:be:cb:77:
        3e:cb:8c:86:26:e5:d1:5a:61:03:cd:64:05:b3:81:a3:16:dc:
        b8:05:cc:af:ea:1b:39:c0:1d:f2:60:af:2f:a0:6a:79:15:c9:
        68:ed:46:3a:d3:73:0d:42:89:31:cf:94:dd:9f:21:13:2a:2e:
        e2:d2:e3:b6:36:22:63:9b:4a:c5:d2:86:d8:24:38:54:a6:91:
        fc:ea:69:4c:6b:14:38:96:a9:18:46:50:d7:81:80:57:10:a1:
        38:67:7b:a7:b6:98:72:32:aa:d3:71:80:ca:af:67:02:e0:2a:
        b7:17:58:84:94:07:d9:78:bb:30:d4:c0:fc:3c:4c:98:fc:a3:
        da:ea:28:0a:09:5c:f3:08:c1:ce:71:df:94:b0:08:9a:d1:7a:
        10:46:90:3a:78:0d:30:e4:2d:a5:b5:48:39:3f:14:dc:e9:a8:
        a1:57:e9:76:bc:15:f4:fe:3a:e6:8f:55:13:50:b6:20:02:a2:
        1b:89:cd:c1:7b:59:f0:1d:c9:be:d3:b6:5b:c3:d9:db:06:55:
        2a:e2:fc:54:ba:71:b1:b3:bf:e0:32:91:42:49:79:ff:47:b6:
        9f:aa:8a:1b
-----BEGIN CERTIFICATE-----
MIIDkTCCAnmgAwIBAgIQP9my8PSRznPfytVSp16qhDANBgkqhkiG9w0BAQsFADAW
MRQwEgYDVQQDDAtFYXN5LVJTQSBDQTAgFw0yNjAyMjcwNjQ1MDVaGA8yMTI2MDIw
MzA2NDUwNVowJTEjMCEGA1UEAwwaaWVlZTgwMi0xeC1zcnYuZXhhbXBsZS5vcmcw
ggEiMA0GCSqGSIb3DQEBAQUAA4IBDwAwggEKAoIBAQDPAg9LxfLU3vddXCiKf19Q
DzDjc7qz74blubSJ0Rrs/OgNPvKBEqxhjyVPgoXy8xzlujg9HRq85wEAObZ0TQHl
OjK5Ith7UvKcXK70VATY56wsYT9dkg+APzB2q5OcESkyQriT750kPAYtMbUzdcDz
tmBrPTUaMxVh9iqdqIyb8j6ui7Rq5ZV1oWDNb6XaKMz7astp6mGzhyniEUjucPBA
tXn6A9J/yue4Vmv9KQnxBh9tt+gyaHMjEeZj6K+UPj1bcAtk5Bxl+dC+qco0kM9R
t6DWthXeAwG6ilKRzGHLoaUAAsGdzV6hcPLw70JrdlmUhuxNVRQteU+79tzTHJKN
AgMBAAGjgckwgcYwCQYDVR0TBAIwADAdBgNVHQ4EFgQUXhQrDPsy1F+RmNrojv1I
t4eujXcwUQYDVR0jBEowSIAUFvf86B2iOftOOgS9SMVosEAqxSGhGqQYMBYxFDAS
BgNVBAMMC0Vhc3ktUlNBIENBghR97svtBZEmci0C91G/K7LrIaKWDDATBgNVHSUE
DDAKBggrBgEFBQcDATALBgNVHQ8EBAMCBaAwJQYDVR0RBB4wHIIaaWVlZTgwMi0x
eC1zcnYuZXhhbXBsZS5vcmcwDQYJKoZIhvcNAQELBQADggEBAGyAtQ2XTfARItAr
AQz8ho/yGlBm5syW5chFI1YAzrM7Ab7Ldz7LjIYm5dFaYQPNZAWzgaMW3LgFzK/q
GznAHfJgry+gankVyWjtRjrTcw1CiTHPlN2fIRMqLuLS47Y2ImObSsXShtgkOFSm
kfzqaUxrFDiWqRhGUNeBgFcQoThne6e2mHIyqtNxgMqvZwLgKrcXWISUB9l4uzDU
wPw8TJj8o9rqKAoJXPMIwc5x35SwCJrRehBGkDp4DTDkLaW1SDk/FNzpqKFX6Xa8
FfT+OuaPVRNQtiACohuJzcF7WfAdyb7TtlvD2dsGVSri/FS6cbGzv+AykUJJef9H
tp+qihs=
-----END CERTIFICATE-----
