Certificate:
    Data:
        Version: 3 (0x2)
        Serial Number:
            e9:bb:3a:3d:a3:b4:82:e8:3a:0c:41:b6:6c:14:23:bc
        Signature Algorithm: sha256WithRSAEncryption
        Issuer: CN=Easy-RSA CA
        Validity
            Not Before: Mar 27 07:32:01 2025 GMT
            Not After : Mar  3 07:32:01 2125 GMT
        Subject: CN=ipsec-srv.example.org
        Subject Public Key Info:
            Public Key Algorithm: rsaEncryption
                Public-Key: (2048 bit)
                Modulus:
                    00:b6:7c:16:31:85:bd:57:26:b4:18:9d:23:67:ff:
                    64:a5:d6:5d:9e:97:ac:6d:66:44:44:16:59:93:2b:
                    d7:d7:68:99:44:30:25:08:e9:34:a5:c2:14:21:96:
                    80:6e:c5:35:df:1f:9a:98:29:24:f5:15:a5:f9:53:
                    b3:95:3e:f6:d6:02:e5:d6:8b:42:b9:a8:3b:b2:65:
                    c7:82:0f:04:e8:1e:9b:8a:6c:9a:7a:cc:07:36:9d:
                    e6:fa:52:c5:f8:f9:fb:25:46:33:63:af:49:5c:87:
                    27:12:63:a6:21:67:1e:4d:58:95:d2:56:65:ac:f7:
                    1c:76:58:f9:dc:e7:91:31:f0:cc:aa:d6:31:82:4e:
                    09:5f:b8:f3:1b:2b:d2:6c:5c:c5:d5:1b:40:a7:ab:
                    60:ea:b4:4a:d2:66:5d:c2:fd:82:38:29:f7:20:e9:
                    6d:c5:9c:09:4a:86:b6:48:56:e3:eb:ee:bb:f5:12:
                    f1:49:e9:db:5e:ad:09:d8:13:75:63:08:bb:8a:ce:
                    eb:e6:7f:b1:64:3b:4d:2c:0a:fa:cc:2b:a7:2f:f2:
                    b2:56:ae:f7:10:51:de:39:8e:50:f1:32:bf:ef:c9:
                    c7:19:66:28:5d:16:a2:a4:ef:5a:bc:ff:2a:08:3d:
                    d7:7c:9e:a7:c6:92:2e:64:87:49:4c:dc:a3:69:91:
                    f1:e7
                Exponent: 65537 (0x10001)
        X509v3 extensions:
            X509v3 Basic Constraints: 
                CA:FALSE
            X509v3 Subject Key Identifier: 
                C3:C0:5A:D7:5D:79:26:37:9F:5D:DE:C9:4C:43:92:42:17:D9:33:A7
            X509v3 Authority Key Identifier: 
                keyid:15:59:3B:C7:6E:7E:81:60:84:D3:77:C1:C2:34:55:94:6E:6C:82:B5
                DirName:/CN=Easy-RSA CA
                serial:56:9D:E4:68:49:04:43:F4:B3:85:E9:B1:79:CC:F4:BF:9E:FD:92:E9
            X509v3 Extended Key Usage: 
                TLS Web Server Authentication
            X509v3 Key Usage: 
                Digital Signature, Key Encipherment
            X509v3 Subject Alternative Name: 
                DNS:ipsec-srv.example.org
    Signature Algorithm: sha256WithRSAEncryption
    Signature Value:
        20:8e:a8:13:85:77:4c:36:76:68:11:e2:be:21:24:b8:7f:88:
        09:aa:55:4c:a8:f7:82:8c:49:de:02:9a:5a:b7:31:5d:3a:af:
        19:90:58:ee:fc:cb:0c:17:59:18:e8:64:99:a6:ad:4c:50:38:
        68:f6:d4:3f:9d:66:91:f4:af:a1:83:ac:49:a2:8f:1d:7f:4a:
        be:75:9c:0c:25:26:c0:81:c1:da:49:92:3a:e2:01:a8:09:bf:
        ba:d6:a6:48:7c:c7:11:b1:6f:03:65:2d:7a:19:66:3f:20:87:
        ed:35:d9:f5:85:db:5a:a3:b1:39:c2:1a:ea:b1:70:98:ba:a1:
        67:37:fc:eb:46:32:5d:fb:59:4a:31:5f:12:20:e3:35:25:e1:
        12:7e:63:5b:eb:e1:3e:ea:f5:d0:95:e1:31:1a:88:4c:ad:ce:
        b9:2f:45:7c:4a:2c:40:c4:ce:25:5b:ed:72:f2:38:3a:5f:52:
        c0:53:df:1b:7c:df:66:ad:67:74:a0:c7:d8:24:b5:12:74:a2:
        b3:7c:07:b9:98:99:7d:f8:cb:64:c9:98:27:cb:c1:a6:f0:07:
        28:d3:30:86:23:94:e5:7a:9b:15:9e:c8:9b:2c:75:b7:b4:2a:
        f5:80:ab:aa:83:05:ec:19:ed:30:a6:8b:89:a4:bc:e8:80:81:
        a9:e1:ff:e6
-----BEGIN CERTIFICATE-----
MIIDiDCCAnCgAwIBAgIRAOm7Oj2jtILoOgxBtmwUI7wwDQYJKoZIhvcNAQELBQAw
FjEUMBIGA1UEAwwLRWFzeS1SU0EgQ0EwIBcNMjUwMzI3MDczMjAxWhgPMjEyNTAz
MDMwNzMyMDFaMCAxHjAcBgNVBAMMFWlwc2VjLXNydi5leGFtcGxlLm9yZzCCASIw
DQYJKoZIhvcNAQEBBQADggEPADCCAQoCggEBALZ8FjGFvVcmtBidI2f/ZKXWXZ6X
rG1mREQWWZMr19domUQwJQjpNKXCFCGWgG7FNd8fmpgpJPUVpflTs5U+9tYC5daL
QrmoO7Jlx4IPBOgem4psmnrMBzad5vpSxfj5+yVGM2OvSVyHJxJjpiFnHk1YldJW
Zaz3HHZY+dznkTHwzKrWMYJOCV+48xsr0mxcxdUbQKerYOq0StJmXcL9gjgp9yDp
bcWcCUqGtkhW4+vuu/US8Unp216tCdgTdWMIu4rO6+Z/sWQ7TSwK+swrpy/yslau
9xBR3jmOUPEyv+/JxxlmKF0WoqTvWrz/Kgg913yep8aSLmSHSUzco2mR8ecCAwEA
AaOBxDCBwTAJBgNVHRMEAjAAMB0GA1UdDgQWBBTDwFrXXXkmN59d3slMQ5JCF9kz
pzBRBgNVHSMESjBIgBQVWTvHbn6BYITTd8HCNFWUbmyCtaEapBgwFjEUMBIGA1UE
AwwLRWFzeS1SU0EgQ0GCFFad5GhJBEP0s4XpsXnM9L+e/ZLpMBMGA1UdJQQMMAoG
CCsGAQUFBwMBMAsGA1UdDwQEAwIFoDAgBgNVHREEGTAXghVpcHNlYy1zcnYuZXhh
bXBsZS5vcmcwDQYJKoZIhvcNAQELBQADggEBACCOqBOFd0w2dmgR4r4hJLh/iAmq
VUyo94KMSd4Cmlq3MV06rxmQWO78ywwXWRjoZJmmrUxQOGj21D+dZpH0r6GDrEmi
jx1/Sr51nAwlJsCBwdpJkjriAagJv7rWpkh8xxGxbwNlLXoZZj8gh+012fWF21qj
sTnCGuqxcJi6oWc3/OtGMl37WUoxXxIg4zUl4RJ+Y1vr4T7q9dCV4TEaiEytzrkv
RXxKLEDEziVb7XLyODpfUsBT3xt832atZ3Sgx9gktRJ0orN8B7mYmX34y2TJmCfL
wabwByjTMIYjlOV6mxWeyJssdbe0KvWAq6qDBewZ7TCmi4mkvOiAganh/+Y=
-----END CERTIFICATE-----
